; ModuleID = '55/134.c'
source_filename = "55/134.c"
target datalayout = "e-m:e-p270:32:32-p271:32:32-p272:64:64-i64:64-f80:128-n8:16:32:64-S128"
target triple = "x86_64-pc-linux-gnu"

@.str = private unnamed_addr constant [7 x i8] c"%d%s%d\00", align 1
@.str.1 = private unnamed_addr constant [3 x i8] c"0\0A\00", align 1
@.str.2 = private unnamed_addr constant [4 x i8] c"%s\0A\00", align 1

; Function Attrs: noinline nounwind uwtable
define dso_local void @main() #0 {
  %1 = alloca i32, align 4
  %2 = alloca i32, align 4
  %3 = alloca i32, align 4
  %4 = alloca i32, align 4
  %5 = alloca i32, align 4
  %6 = alloca i32, align 4
  %7 = alloca i64, align 8
  %8 = alloca [100 x i8], align 16
  %9 = alloca [100 x i8], align 16
  %10 = alloca [100 x i32], align 16
  %11 = alloca [100 x i32], align 16
  %12 = bitcast [100 x i32]* %10 to i8*
  call void @llvm.memset.p0i8.i64(i8* align 16 %12, i8 0, i64 400, i1 false)
  %13 = bitcast [100 x i32]* %11 to i8*
  call void @llvm.memset.p0i8.i64(i8* align 16 %13, i8 0, i64 400, i1 false)
  %14 = getelementptr inbounds [100 x i8], [100 x i8]* %8, i64 0, i64 0
  %15 = call i32 (i8*, ...) @__isoc99_scanf(i8* getelementptr inbounds ([7 x i8], [7 x i8]* @.str, i64 0, i64 0), i32* %1, i8* %14, i32* %2)
  %16 = getelementptr inbounds [100 x i8], [100 x i8]* %8, i64 0, i64 0
  %17 = call i64 @strlen(i8* %16) #4
  %18 = trunc i64 %17 to i32
  store i32 %18, i32* %3, align 4
  store i32 0, i32* %4, align 4
  br label %19

19:                                               ; preds = %85, %0
  %20 = load i32, i32* %4, align 4
  %21 = load i32, i32* %3, align 4
  %22 = icmp slt i32 %20, %21
  br i1 %22, label %23, label %88

23:                                               ; preds = %19
  %24 = load i32, i32* %4, align 4
  %25 = sext i32 %24 to i64
  %26 = getelementptr inbounds [100 x i8], [100 x i8]* %8, i64 0, i64 %25
  %27 = load i8, i8* %26, align 1
  %28 = sext i8 %27 to i32
  %29 = icmp sge i32 %28, 65
  br i1 %29, label %30, label %48

30:                                               ; preds = %23
  %31 = load i32, i32* %4, align 4
  %32 = sext i32 %31 to i64
  %33 = getelementptr inbounds [100 x i8], [100 x i8]* %8, i64 0, i64 %32
  %34 = load i8, i8* %33, align 1
  %35 = sext i8 %34 to i32
  %36 = icmp sle i32 %35, 90
  br i1 %36, label %37, label %48

37:                                               ; preds = %30
  %38 = load i32, i32* %4, align 4
  %39 = sext i32 %38 to i64
  %40 = getelementptr inbounds [100 x i8], [100 x i8]* %8, i64 0, i64 %39
  %41 = load i8, i8* %40, align 1
  %42 = sext i8 %41 to i32
  %43 = sub nsw i32 %42, 65
  %44 = add nsw i32 %43, 10
  %45 = load i32, i32* %4, align 4
  %46 = sext i32 %45 to i64
  %47 = getelementptr inbounds [100 x i32], [100 x i32]* %10, i64 0, i64 %46
  store i32 %44, i32* %47, align 4
  br label %84

48:                                               ; preds = %30, %23
  %49 = load i32, i32* %4, align 4
  %50 = sext i32 %49 to i64
  %51 = getelementptr inbounds [100 x i8], [100 x i8]* %8, i64 0, i64 %50
  %52 = load i8, i8* %51, align 1
  %53 = sext i8 %52 to i32
  %54 = icmp sge i32 %53, 97
  br i1 %54, label %55, label %73

55:                                               ; preds = %48
  %56 = load i32, i32* %4, align 4
  %57 = sext i32 %56 to i64
  %58 = getelementptr inbounds [100 x i8], [100 x i8]* %8, i64 0, i64 %57
  %59 = load i8, i8* %58, align 1
  %60 = sext i8 %59 to i32
  %61 = icmp sle i32 %60, 122
  br i1 %61, label %62, label %73

62:                                               ; preds = %55
  %63 = load i32, i32* %4, align 4
  %64 = sext i32 %63 to i64
  %65 = getelementptr inbounds [100 x i8], [100 x i8]* %8, i64 0, i64 %64
  %66 = load i8, i8* %65, align 1
  %67 = sext i8 %66 to i32
  %68 = sub nsw i32 %67, 97
  %69 = add nsw i32 %68, 10
  %70 = load i32, i32* %4, align 4
  %71 = sext i32 %70 to i64
  %72 = getelementptr inbounds [100 x i32], [100 x i32]* %10, i64 0, i64 %71
  store i32 %69, i32* %72, align 4
  br label %83

73:                                               ; preds = %55, %48
  %74 = load i32, i32* %4, align 4
  %75 = sext i32 %74 to i64
  %76 = getelementptr inbounds [100 x i8], [100 x i8]* %8, i64 0, i64 %75
  %77 = load i8, i8* %76, align 1
  %78 = sext i8 %77 to i32
  %79 = sub nsw i32 %78, 48
  %80 = load i32, i32* %4, align 4
  %81 = sext i32 %80 to i64
  %82 = getelementptr inbounds [100 x i32], [100 x i32]* %10, i64 0, i64 %81
  store i32 %79, i32* %82, align 4
  br label %83

83:                                               ; preds = %73, %62
  br label %84

84:                                               ; preds = %83, %37
  br label %85

85:                                               ; preds = %84
  %86 = load i32, i32* %4, align 4
  %87 = add nsw i32 %86, 1
  store i32 %87, i32* %4, align 4
  br label %19

88:                                               ; preds = %19
  %89 = load i32, i32* %3, align 4
  %90 = getelementptr inbounds [100 x i32], [100 x i32]* %10, i64 0, i64 0
  %91 = load i32, i32* %1, align 4
  %92 = call i64 @trans(i32 %89, i32* %90, i32 %91)
  store i64 %92, i64* %7, align 8
  %93 = load i64, i64* %7, align 8
  %94 = icmp eq i64 %93, 0
  br i1 %94, label %95, label %97

95:                                               ; preds = %88
  %96 = call i32 (i8*, ...) @printf(i8* getelementptr inbounds ([3 x i8], [3 x i8]* @.str.1, i64 0, i64 0))
  br label %165

97:                                               ; preds = %88
  store i32 0, i32* %4, align 4
  br label %98

98:                                               ; preds = %114, %97
  %99 = load i64, i64* %7, align 8
  %100 = icmp ne i64 %99, 0
  br i1 %100, label %101, label %117

101:                                              ; preds = %98
  %102 = load i64, i64* %7, align 8
  %103 = load i32, i32* %2, align 4
  %104 = sext i32 %103 to i64
  %105 = srem i64 %102, %104
  %106 = trunc i64 %105 to i32
  %107 = load i32, i32* %4, align 4
  %108 = sext i32 %107 to i64
  %109 = getelementptr inbounds [100 x i32], [100 x i32]* %11, i64 0, i64 %108
  store i32 %106, i32* %109, align 4
  %110 = load i64, i64* %7, align 8
  %111 = load i32, i32* %2, align 4
  %112 = sext i32 %111 to i64
  %113 = sdiv i64 %110, %112
  store i64 %113, i64* %7, align 8
  br label %114

114:                                              ; preds = %101
  %115 = load i32, i32* %4, align 4
  %116 = add nsw i32 %115, 1
  store i32 %116, i32* %4, align 4
  br label %98

117:                                              ; preds = %98
  %118 = load i32, i32* %4, align 4
  store i32 %118, i32* %5, align 4
  store i32 0, i32* %6, align 4
  br label %119

119:                                              ; preds = %154, %117
  %120 = load i32, i32* %6, align 4
  %121 = load i32, i32* %5, align 4
  %122 = icmp sle i32 %120, %121
  br i1 %122, label %123, label %159

123:                                              ; preds = %119
  %124 = load i32, i32* %4, align 4
  %125 = sub nsw i32 %124, 1
  %126 = sext i32 %125 to i64
  %127 = getelementptr inbounds [100 x i32], [100 x i32]* %11, i64 0, i64 %126
  %128 = load i32, i32* %127, align 4
  %129 = icmp sle i32 %128, 9
  br i1 %129, label %130, label %141

130:                                              ; preds = %123
  %131 = load i32, i32* %4, align 4
  %132 = sub nsw i32 %131, 1
  %133 = sext i32 %132 to i64
  %134 = getelementptr inbounds [100 x i32], [100 x i32]* %11, i64 0, i64 %133
  %135 = load i32, i32* %134, align 4
  %136 = add nsw i32 %135, 48
  %137 = trunc i32 %136 to i8
  %138 = load i32, i32* %6, align 4
  %139 = sext i32 %138 to i64
  %140 = getelementptr inbounds [100 x i8], [100 x i8]* %9, i64 0, i64 %139
  store i8 %137, i8* %140, align 1
  br label %153

141:                                              ; preds = %123
  %142 = load i32, i32* %4, align 4
  %143 = sub nsw i32 %142, 1
  %144 = sext i32 %143 to i64
  %145 = getelementptr inbounds [100 x i32], [100 x i32]* %11, i64 0, i64 %144
  %146 = load i32, i32* %145, align 4
  %147 = add nsw i32 %146, 65
  %148 = sub nsw i32 %147, 10
  %149 = trunc i32 %148 to i8
  %150 = load i32, i32* %6, align 4
  %151 = sext i32 %150 to i64
  %152 = getelementptr inbounds [100 x i8], [100 x i8]* %9, i64 0, i64 %151
  store i8 %149, i8* %152, align 1
  br label %153

153:                                              ; preds = %141, %130
  br label %154

154:                                              ; preds = %153
  %155 = load i32, i32* %6, align 4
  %156 = add nsw i32 %155, 1
  store i32 %156, i32* %6, align 4
  %157 = load i32, i32* %4, align 4
  %158 = add nsw i32 %157, -1
  store i32 %158, i32* %4, align 4
  br label %119

159:                                              ; preds = %119
  %160 = load i32, i32* %5, align 4
  %161 = sext i32 %160 to i64
  %162 = getelementptr inbounds [100 x i8], [100 x i8]* %9, i64 0, i64 %161
  store i8 0, i8* %162, align 1
  %163 = getelementptr inbounds [100 x i8], [100 x i8]* %9, i64 0, i64 0
  %164 = call i32 (i8*, ...) @printf(i8* getelementptr inbounds ([4 x i8], [4 x i8]* @.str.2, i64 0, i64 0), i8* %163)
  br label %165

165:                                              ; preds = %159, %95
  ret void
}

; Function Attrs: argmemonly nounwind willreturn
declare void @llvm.memset.p0i8.i64(i8* nocapture writeonly, i8, i64, i1 immarg) #1

declare dso_local i32 @__isoc99_scanf(i8*, ...) #2

; Function Attrs: nounwind readonly
declare dso_local i64 @strlen(i8*) #3

; Function Attrs: noinline nounwind uwtable
define dso_local i64 @trans(i32 %0, i32* %1, i32 %2) #0 {
  %4 = alloca i64, align 8
  %5 = alloca i32, align 4
  %6 = alloca i32*, align 8
  %7 = alloca i32, align 4
  %8 = alloca i64, align 8
  store i32 %0, i32* %5, align 4
  store i32* %1, i32** %6, align 8
  store i32 %2, i32* %7, align 4
  %9 = load i32, i32* %5, align 4
  %10 = icmp eq i32 %9, 1
  br i1 %10, label %11, label %19

11:                                               ; preds = %3
  %12 = load i32*, i32** %6, align 8
  %13 = load i32, i32* %5, align 4
  %14 = sub nsw i32 %13, 1
  %15 = sext i32 %14 to i64
  %16 = getelementptr inbounds i32, i32* %12, i64 %15
  %17 = load i32, i32* %16, align 4
  %18 = sext i32 %17 to i64
  store i64 %18, i64* %4, align 8
  br label %38

19:                                               ; preds = %3
  %20 = load i32*, i32** %6, align 8
  %21 = load i32, i32* %5, align 4
  %22 = sub nsw i32 %21, 1
  %23 = sext i32 %22 to i64
  %24 = getelementptr inbounds i32, i32* %20, i64 %23
  %25 = load i32, i32* %24, align 4
  %26 = sext i32 %25 to i64
  %27 = load i32, i32* %7, align 4
  %28 = sext i32 %27 to i64
  %29 = load i32, i32* %5, align 4
  %30 = sub nsw i32 %29, 1
  %31 = load i32*, i32** %6, align 8
  %32 = load i32, i32* %7, align 4
  %33 = call i64 @trans(i32 %30, i32* %31, i32 %32)
  %34 = mul nsw i64 %28, %33
  %35 = add nsw i64 %26, %34
  store i64 %35, i64* %8, align 8
  br label %36

36:                                               ; preds = %19
  %37 = load i64, i64* %8, align 8
  store i64 %37, i64* %4, align 8
  br label %38

38:                                               ; preds = %36, %11
  %39 = load i64, i64* %4, align 8
  ret i64 %39
}

declare dso_local i32 @printf(i8*, ...) #2


!llvm.module.flags = !{!0}
!llvm.ident = !{!1}

!0 = !{i32 1, !"wchar_size", i32 4}
!1 = !{!"clang version 10.0.0-4ubuntu1 "}
